target datalayout = "e-m:e-p270:32:32-p271:32:32-p272:64:64-i64:64-i128:128-f80:128-n8:16:32:64-S128"
target triple = "x86_64-pc-linux-gnu"

%struct.WebPChunk = type { i32, i32, %struct.WebPData, ptr }
%struct.WebPData = type { ptr, i64 }

; Function Attrs: inlinehint nounwind uwtable
define internal i64 @SizeWithPadding(i64 noundef %0) #3 {
  %2 = alloca i64, align 8
  store i64 %0, ptr %2, align 8, !tbaa !31
  %3 = load i64, ptr %2, align 8, !tbaa !31
  %4 = add i64 %3, 1
  %5 = and i64 %4, 4294967294
  %6 = add i64 8, %5
  ret i64 %6
}

; Function Attrs: inlinehint nounwind uwtable
define internal void @PutLE16(ptr noundef %0, i32 noundef %1) #3 {
  %3 = alloca ptr, align 8
  %4 = alloca i32, align 4
  store ptr %0, ptr %3, align 8, !tbaa !26
  store i32 %1, ptr %4, align 4, !tbaa !19
  %5 = load i32, ptr %4, align 4, !tbaa !19
  %6 = ashr i32 %5, 0
  %7 = and i32 %6, 255
  %8 = trunc i32 %7 to i8
  %9 = load ptr, ptr %3, align 8, !tbaa !26
  %10 = getelementptr inbounds i8, ptr %9, i64 0
  store i8 %8, ptr %10, align 1, !tbaa !27
  %11 = load i32, ptr %4, align 4, !tbaa !19
  %12 = ashr i32 %11, 8
  %13 = and i32 %12, 255
  %14 = trunc i32 %13 to i8
  %15 = load ptr, ptr %3, align 8, !tbaa !26
  %16 = getelementptr inbounds i8, ptr %15, i64 1
  store i8 %14, ptr %16, align 1, !tbaa !27
  ret void
}

; Function Attrs: inlinehint nounwind uwtable
define internal i64 @ChunkDiskSize(ptr noundef %0) #3 {
  %2 = alloca ptr, align 8
  %3 = alloca i64, align 8
  store ptr %0, ptr %2, align 8, !tbaa !3
  call void @llvm.lifetime.start.p0(i64 8, ptr %3) #6
  %4 = load ptr, ptr %2, align 8, !tbaa !3
  %5 = getelementptr inbounds nuw %struct.WebPChunk, ptr %4, i32 0, i32 2
  %6 = getelementptr inbounds nuw %struct.WebPData, ptr %5, i32 0, i32 1
  %7 = load i64, ptr %6, align 8, !tbaa !41
  store i64 %7, ptr %3, align 8, !tbaa !31
  %8 = load i64, ptr %3, align 8, !tbaa !31
  %9 = call i64 @SizeWithPadding(i64 noundef %8)
  call void @llvm.lifetime.end.p0(i64 8, ptr %3) #6
  ret i64 %9
}

; Function Attrs: inlinehint nounwind uwtable
define internal void @PutLE32(ptr noundef %0, i32 noundef %1) #3 {
  %3 = alloca ptr, align 8
  %4 = alloca i32, align 4
  store ptr %0, ptr %3, align 8, !tbaa !26
  store i32 %1, ptr %4, align 4, !tbaa !19
  %5 = load ptr, ptr %3, align 8, !tbaa !26
  %6 = load i32, ptr %4, align 4, !tbaa !19
  %7 = and i32 %6, 65535
  call void @PutLE16(ptr noundef %5, i32 noundef %7)
  %8 = load ptr, ptr %3, align 8, !tbaa !26
  %9 = getelementptr inbounds i8, ptr %8, i64 2
  %10 = load i32, ptr %4, align 4, !tbaa !19
  %11 = lshr i32 %10, 16
  call void @PutLE16(ptr noundef %9, i32 noundef %11)
  ret void
}

; Function Attrs: nounwind uwtable
define internal ptr @ChunkEmit(ptr noundef %0, ptr noundef %1) #0 {
  %3 = alloca ptr, align 8
  %4 = alloca ptr, align 8
  %5 = alloca i64, align 8
  store ptr %0, ptr %3, align 8, !tbaa !3
  store ptr %1, ptr %4, align 8, !tbaa !26
  call void @llvm.lifetime.start.p0(i64 8, ptr %5) #6
  %6 = load ptr, ptr %3, align 8, !tbaa !3
  %7 = getelementptr inbounds nuw %struct.WebPChunk, ptr %6, i32 0, i32 2
  %8 = getelementptr inbounds nuw %struct.WebPData, ptr %7, i32 0, i32 1
  %9 = load i64, ptr %8, align 8, !tbaa !41
  store i64 %9, ptr %5, align 8, !tbaa !31
  %10 = load ptr, ptr %4, align 8, !tbaa !26
  %11 = getelementptr inbounds i8, ptr %10, i64 0
  %12 = load ptr, ptr %3, align 8, !tbaa !3
  %13 = getelementptr inbounds nuw %struct.WebPChunk, ptr %12, i32 0, i32 0
  %14 = load i32, ptr %13, align 8, !tbaa !8
  call void @PutLE32(ptr noundef %11, i32 noundef %14)
  %15 = load ptr, ptr %4, align 8, !tbaa !26
  %16 = getelementptr inbounds i8, ptr %15, i64 4
  %17 = load i64, ptr %5, align 8, !tbaa !31
  %18 = trunc i64 %17 to i32
  call void @PutLE32(ptr noundef %16, i32 noundef %18)
  %19 = load ptr, ptr %4, align 8, !tbaa !26
  %20 = getelementptr inbounds i8, ptr %19, i64 8
  %21 = load ptr, ptr %3, align 8, !tbaa !3
  %22 = getelementptr inbounds nuw %struct.WebPChunk, ptr %21, i32 0, i32 2
  %23 = getelementptr inbounds nuw %struct.WebPData, ptr %22, i32 0, i32 0
  %24 = load ptr, ptr %23, align 8, !tbaa !42
  %25 = load i64, ptr %5, align 8, !tbaa !31
  call void @llvm.memcpy.p0.p0.i64(ptr align 1 %20, ptr align 1 %24, i64 %25, i1 false)
  %26 = load i64, ptr %5, align 8, !tbaa !31
  %27 = and i64 %26, 1
  %28 = icmp ne i64 %27, 0
  br i1 %28, label %29, label %34

29:                                               ; preds = %2
  %30 = load ptr, ptr %4, align 8, !tbaa !26
  %31 = load i64, ptr %5, align 8, !tbaa !31
  %32 = add i64 8, %31
  %33 = getelementptr inbounds nuw i8, ptr %30, i64 %32
  store i8 0, ptr %33, align 1, !tbaa !27
  br label %34

34:                                               ; preds = %29, %2
  %35 = load ptr, ptr %4, align 8, !tbaa !26
  %36 = load ptr, ptr %3, align 8, !tbaa !3
  %37 = call i64 @ChunkDiskSize(ptr noundef %36)
  %38 = getelementptr inbounds nuw i8, ptr %35, i64 %37
  call void @llvm.lifetime.end.p0(i64 8, ptr %5) #6
  ret ptr %38
}

; Function Attrs: nounwind uwtable
define hidden ptr @ChunkListEmit(ptr noundef %0, ptr noundef %1) #0 {
  %3 = alloca ptr, align 8
  %4 = alloca ptr, align 8
  store ptr %0, ptr %3, align 8, !tbaa !3
  store ptr %1, ptr %4, align 8, !tbaa !26
  br label %5

5:                                                ; preds = %8, %2
  %6 = load ptr, ptr %3, align 8, !tbaa !3
  %7 = icmp ne ptr %6, null
  br i1 %7, label %8, label %15

8:                                                ; preds = %5
  %9 = load ptr, ptr %3, align 8, !tbaa !3
  %10 = load ptr, ptr %4, align 8, !tbaa !26
  %11 = call ptr @ChunkEmit(ptr noundef %9, ptr noundef %10)
  store ptr %11, ptr %4, align 8, !tbaa !26
  %12 = load ptr, ptr %3, align 8, !tbaa !3
  %13 = getelementptr inbounds nuw %struct.WebPChunk, ptr %12, i32 0, i32 3
  %14 = load ptr, ptr %13, align 8, !tbaa !15
  store ptr %14, ptr %3, align 8, !tbaa !3
  br label %5, !llvm.loop !40

15:                                               ; preds = %5
  %16 = load ptr, ptr %4, align 8, !tbaa !26
  ret ptr %16
}