; Function Attrs: nofree norecurse nosync nounwind memory(readwrite, inaccessiblemem: none) uwtable
define hidden ptr @ChunkListEmit(ptr noundef readonly captures(address_is_null) %0, ptr noundef writeonly captures(ret: address, provenance) %1) local_unnamed_addr #11 {
  %.not6 = icmp eq ptr %0, null
  br i1 %.not6, label %._crit_edge, label %.lr.ph

.lr.ph:                                           ; preds = %2, %ChunkEmit.exit
  %.08 = phi ptr [ %37, %ChunkEmit.exit ], [ %1, %2 ]
  %.057 = phi ptr [ %39, %ChunkEmit.exit ], [ %0, %2 ]
  %3 = getelementptr inbounds nuw i8, ptr %.057, i64 8
  %4 = getelementptr inbounds nuw i8, ptr %.057, i64 16
  %5 = load i64, ptr %4, align 8, !tbaa !35
  %6 = load i32, ptr %.057, align 8, !tbaa !22
  %7 = trunc i32 %6 to i8
  store i8 %7, ptr %.08, align 1, !tbaa !21
  %8 = lshr i32 %6, 8
  %9 = trunc i32 %8 to i8
  %10 = getelementptr inbounds nuw i8, ptr %.08, i64 1
  store i8 %9, ptr %10, align 1, !tbaa !21
  %11 = getelementptr inbounds nuw i8, ptr %.08, i64 2
  %12 = lshr i32 %6, 16
  %13 = trunc i32 %12 to i8
  store i8 %13, ptr %11, align 1, !tbaa !21
  %14 = lshr i32 %6, 24
  %15 = trunc nuw i32 %14 to i8
  %16 = getelementptr inbounds nuw i8, ptr %.08, i64 3
  store i8 %15, ptr %16, align 1, !tbaa !21
  %17 = getelementptr inbounds nuw i8, ptr %.08, i64 4
  %18 = trunc i64 %5 to i8
  store i8 %18, ptr %17, align 1, !tbaa !21
  %19 = lshr i64 %5, 8
  %20 = trunc i64 %19 to i8
  %21 = getelementptr inbounds nuw i8, ptr %.08, i64 5
  store i8 %20, ptr %21, align 1, !tbaa !21
  %22 = getelementptr inbounds nuw i8, ptr %.08, i64 6
  %23 = lshr i64 %5, 16
  %24 = trunc i64 %23 to i8
  store i8 %24, ptr %22, align 1, !tbaa !21
  %25 = lshr i64 %5, 24
  %26 = trunc i64 %25 to i8
  %27 = getelementptr inbounds nuw i8, ptr %.08, i64 7
  store i8 %26, ptr %27, align 1, !tbaa !21
  %28 = getelementptr inbounds nuw i8, ptr %.08, i64 8
  %29 = load ptr, ptr %3, align 8, !tbaa !36
  tail call void @llvm.memcpy.p0.p0.i64(ptr nonnull align 1 %28, ptr align 1 %29, i64 %5, i1 false)
  %30 = and i64 %5, 1
  %.not.i = icmp eq i64 %30, 0
  br i1 %.not.i, label %ChunkEmit.exit, label %31

31:                                               ; preds = %.lr.ph
  %32 = getelementptr i8, ptr %.08, i64 %5
  %33 = getelementptr i8, ptr %32, i64 8
  store i8 0, ptr %33, align 1, !tbaa !21
  br label %ChunkEmit.exit

ChunkEmit.exit:                                   ; preds = %.lr.ph, %31
  %.val.i = load i64, ptr %4, align 8, !tbaa !35
  %34 = add i64 %.val.i, 1
  %35 = and i64 %34, 4294967294
  %36 = getelementptr inbounds nuw i8, ptr %.08, i64 %35
  %37 = getelementptr inbounds nuw i8, ptr %36, i64 8
  %38 = getelementptr inbounds nuw i8, ptr %.057, i64 24
  %39 = load ptr, ptr %38, align 8, !tbaa !14
  %.not = icmp eq ptr %39, null
  br i1 %.not, label %._crit_edge, label %.lr.ph, !llvm.loop !37

._crit_edge:                                      ; preds = %ChunkEmit.exit, %2
  %.0.lcssa = phi ptr [ %1, %2 ], [ %37, %ChunkEmit.exit ]
  ret ptr %.0.lcssa
}